; Function Attrs: nofree norecurse nosync nounwind memory(read, inaccessiblemem: none) uwtable
define internal i32 @_archive_filter_code(ptr noundef readonly captures(none) %0, i32 noundef %1) #10 {
  %3 = getelementptr i8, ptr %0, i64 632
  %.val = load ptr, ptr %3, align 8, !tbaa !53
  %4 = icmp eq i32 %1, -1
  %5 = icmp ne ptr %.val, null
  %or.cond.i = select i1 %4, i1 %5, i1 false
  br i1 %or.cond.i, label %.preheader.i, label %6

.preheader.i:                                     ; preds = %2, %.preheader.i
  %.0.i = phi ptr [ %.017.i, %.preheader.i ], [ %.val, %2 ]
  %.017.in.i = getelementptr inbounds nuw i8, ptr %.0.i, i64 16
  %.017.i = load ptr, ptr %.017.in.i, align 8, !tbaa !63
  %.not.i = icmp eq ptr %.017.i, null
  br i1 %.not.i, label %get_filter.exit.thread4, label %.preheader.i, !llvm.loop !136

6:                                                ; preds = %2
  %7 = icmp slt i32 %1, 0
  br i1 %7, label %get_filter.exit.thread, label %.preheader1.i

.preheader1.i:                                    ; preds = %6
  %8 = icmp ne i32 %1, 0
  %9 = select i1 %8, i1 %5, i1 false
  br i1 %9, label %.lr.ph.i, label %get_filter.exit

.lr.ph.i:                                         ; preds = %.preheader1.i, %.lr.ph.i
  %.14.i = phi ptr [ %11, %.lr.ph.i ], [ %.val, %.preheader1.i ]
  %.0193.i = phi i32 [ %12, %.lr.ph.i ], [ %1, %.preheader1.i ]
  %10 = getelementptr inbounds nuw i8, ptr %.14.i, i64 16
  %11 = load ptr, ptr %10, align 8, !tbaa !63
  %12 = add nsw i32 %.0193.i, -1
  %13 = icmp samesign ugt i32 %.0193.i, 1
  %14 = icmp ne ptr %11, null
  %15 = select i1 %13, i1 %14, i1 false
  br i1 %15, label %.lr.ph.i, label %get_filter.exit, !llvm.loop !137

get_filter.exit:                                  ; preds = %.lr.ph.i, %.preheader1.i
  %.018.i = phi ptr [ %.val, %.preheader1.i ], [ %11, %.lr.ph.i ]
  %16 = icmp eq ptr %.018.i, null
  br i1 %16, label %get_filter.exit.thread, label %get_filter.exit.thread4

get_filter.exit.thread4:                          ; preds = %.preheader.i, %get_filter.exit
  %.018.i6 = phi ptr [ %.018.i, %get_filter.exit ], [ %.0.i, %.preheader.i ]
  %17 = getelementptr inbounds nuw i8, ptr %.018.i6, i64 56
  %18 = load i32, ptr %17, align 8, !tbaa !49
  br label %get_filter.exit.thread

get_filter.exit.thread:                           ; preds = %6, %get_filter.exit, %get_filter.exit.thread4
  %19 = phi i32 [ %18, %get_filter.exit.thread4 ], [ -1, %get_filter.exit ], [ -1, %6 ]
  ret i32 %19
}